target datalayout = "e-m:e-p270:32:32-p271:32:32-p272:64:64-i64:64-i128:128-f80:128-n8:16:32:64-S128"
target triple = "x86_64-pc-linux-gnu"

@__const._blend_Lab_scale.scale = private unnamed_addr constant [4 x float] [float 0x3F847AE140000000, float 7.812500e-03, float 7.812500e-03, float 1.000000e+00], align 16
@__const._blend_Lab_rescale.scale = private unnamed_addr constant [4 x float] [float 1.000000e+02, float 1.280000e+02, float 1.280000e+02, float 1.000000e+00], align 16

; Function Attrs: inlinehint nounwind uwtable
define internal void @_blend_Lab_rescale(ptr noundef %0, ptr noundef %1) #2 {
  %3 = alloca ptr, align 8
  %4 = alloca ptr, align 8
  %5 = alloca [4 x float], align 16
  %6 = alloca i64, align 8
  store ptr %0, ptr %3, align 8, !tbaa !11
  store ptr %1, ptr %4, align 8, !tbaa !11
  call void @llvm.lifetime.start.p0(i64 16, ptr %5) #8
  call void @llvm.memcpy.p0.p0.i64(ptr align 16 %5, ptr align 16 @__const._blend_Lab_rescale.scale, i64 16, i1 false)
  call void @llvm.lifetime.start.p0(i64 8, ptr %6) #8
  store i64 0, ptr %6, align 8, !tbaa !43
  br label %7

7:                                                ; preds = %23, %2
  %8 = load i64, ptr %6, align 8, !tbaa !43
  %9 = icmp ult i64 %8, 4
  br i1 %9, label %11, label %10

10:                                               ; preds = %7
  call void @llvm.lifetime.end.p0(i64 8, ptr %6) #8
  br label %26

11:                                               ; preds = %7
  %12 = load ptr, ptr %3, align 8, !tbaa !11
  %13 = load i64, ptr %6, align 8, !tbaa !43
  %14 = getelementptr inbounds nuw float, ptr %12, i64 %13
  %15 = load float, ptr %14, align 4, !tbaa !45
  %16 = load i64, ptr %6, align 8, !tbaa !43
  %17 = getelementptr inbounds nuw [4 x float], ptr %5, i64 0, i64 %16
  %18 = load float, ptr %17, align 4, !tbaa !45
  %19 = fmul reassoc nsz arcp contract afn float %15, %18
  %20 = load ptr, ptr %4, align 8, !tbaa !11
  %21 = load i64, ptr %6, align 8, !tbaa !43
  %22 = getelementptr inbounds nuw float, ptr %20, i64 %21
  store float %19, ptr %22, align 4, !tbaa !45
  br label %23

23:                                               ; preds = %11
  %24 = load i64, ptr %6, align 8, !tbaa !43
  %25 = add i64 %24, 1
  store i64 %25, ptr %6, align 8, !tbaa !43
  br label %7

26:                                               ; preds = %10
  call void @llvm.lifetime.end.p0(i64 16, ptr %5) #8
  ret void
}

; Function Attrs: inlinehint nounwind uwtable
define internal float @_CLAMP(float noundef %0, float noundef %1, float noundef %2) #2 {
  %4 = alloca float, align 4
  %5 = alloca float, align 4
  %6 = alloca float, align 4
  store float %0, ptr %4, align 4, !tbaa !45
  store float %1, ptr %5, align 4, !tbaa !45
  store float %2, ptr %6, align 4, !tbaa !45
  %7 = load float, ptr %4, align 4, !tbaa !45
  %8 = load float, ptr %5, align 4, !tbaa !45
  %9 = call reassoc nsz arcp contract afn float @llvm.maxnum.f32(float %7, float %8)
  %10 = load float, ptr %6, align 4, !tbaa !45
  %11 = call reassoc nsz arcp contract afn float @llvm.minnum.f32(float %9, float %10)
  ret float %11
}

; Function Attrs: inlinehint nounwind uwtable
define internal void @_blend_Lab_scale(ptr noundef %0, ptr noundef %1) #2 {
  %3 = alloca ptr, align 8
  %4 = alloca ptr, align 8
  %5 = alloca [4 x float], align 16
  %6 = alloca i64, align 8
  store ptr %0, ptr %3, align 8, !tbaa !11
  store ptr %1, ptr %4, align 8, !tbaa !11
  call void @llvm.lifetime.start.p0(i64 16, ptr %5) #8
  call void @llvm.memcpy.p0.p0.i64(ptr align 16 %5, ptr align 16 @__const._blend_Lab_scale.scale, i64 16, i1 false)
  call void @llvm.lifetime.start.p0(i64 8, ptr %6) #8
  store i64 0, ptr %6, align 8, !tbaa !43
  br label %7

7:                                                ; preds = %23, %2
  %8 = load i64, ptr %6, align 8, !tbaa !43
  %9 = icmp ult i64 %8, 4
  br i1 %9, label %11, label %10

10:                                               ; preds = %7
  call void @llvm.lifetime.end.p0(i64 8, ptr %6) #8
  br label %26

11:                                               ; preds = %7
  %12 = load ptr, ptr %3, align 8, !tbaa !11
  %13 = load i64, ptr %6, align 8, !tbaa !43
  %14 = getelementptr inbounds nuw float, ptr %12, i64 %13
  %15 = load float, ptr %14, align 4, !tbaa !45
  %16 = load i64, ptr %6, align 8, !tbaa !43
  %17 = getelementptr inbounds nuw [4 x float], ptr %5, i64 0, i64 %16
  %18 = load float, ptr %17, align 4, !tbaa !45
  %19 = fmul reassoc nsz arcp contract afn float %15, %18
  %20 = load ptr, ptr %4, align 8, !tbaa !11
  %21 = load i64, ptr %6, align 8, !tbaa !43
  %22 = getelementptr inbounds nuw float, ptr %20, i64 %21
  store float %19, ptr %22, align 4, !tbaa !45
  br label %23

23:                                               ; preds = %11
  %24 = load i64, ptr %6, align 8, !tbaa !43
  %25 = add i64 %24, 1
  store i64 %25, ptr %6, align 8, !tbaa !43
  br label %7

26:                                               ; preds = %10
  call void @llvm.lifetime.end.p0(i64 16, ptr %5) #8
  ret void
}

; Function Attrs: nounwind uwtable
define internal void @_blend_difference2(ptr noundef %0, ptr noundef %1, ptr noundef %2, ptr noalias noundef %3, i64 noundef %4, ptr noundef %5, ptr noundef %6) #0 {
  %8 = alloca ptr, align 8
  %9 = alloca ptr, align 8
  %10 = alloca ptr, align 8
  %11 = alloca ptr, align 8
  %12 = alloca i64, align 8
  %13 = alloca ptr, align 8
  %14 = alloca ptr, align 8
  %15 = alloca i64, align 8
  %16 = alloca i64, align 8
  %17 = alloca i32, align 4
  %18 = alloca float, align 4
  %19 = alloca [4 x float], align 16
  %20 = alloca [4 x float], align 16
  %21 = alloca i64, align 8
  store ptr %0, ptr %8, align 8, !tbaa !11
  store ptr %1, ptr %9, align 8, !tbaa !11
  store ptr %2, ptr %10, align 8, !tbaa !11
  store ptr %3, ptr %11, align 8, !tbaa !11
  store i64 %4, ptr %12, align 8, !tbaa !43
  store ptr %5, ptr %13, align 8, !tbaa !11
  store ptr %6, ptr %14, align 8, !tbaa !11
  call void @llvm.lifetime.start.p0(i64 8, ptr %15) #8
  store i64 0, ptr %15, align 8, !tbaa !43
  call void @llvm.lifetime.start.p0(i64 8, ptr %16) #8
  store i64 0, ptr %16, align 8, !tbaa !43
  br label %22

22:                                               ; preds = %108, %7
  %23 = load i64, ptr %15, align 8, !tbaa !43
  %24 = load i64, ptr %12, align 8, !tbaa !43
  %25 = icmp ult i64 %23, %24
  br i1 %25, label %27, label %26

26:                                               ; preds = %22
  store i32 2, ptr %17, align 4
  call void @llvm.lifetime.end.p0(i64 8, ptr %16) #8
  call void @llvm.lifetime.end.p0(i64 8, ptr %15) #8
  br label %113

27:                                               ; preds = %22
  call void @llvm.lifetime.start.p0(i64 4, ptr %18) #8
  %28 = load ptr, ptr %11, align 8, !tbaa !11
  %29 = load i64, ptr %15, align 8, !tbaa !43
  %30 = getelementptr inbounds nuw float, ptr %28, i64 %29
  %31 = load float, ptr %30, align 4, !tbaa !45
  store float %31, ptr %18, align 4, !tbaa !45
  call void @llvm.lifetime.start.p0(i64 16, ptr %19) #8
  call void @llvm.lifetime.start.p0(i64 16, ptr %20) #8
  %32 = load ptr, ptr %8, align 8, !tbaa !11
  %33 = load i64, ptr %16, align 8, !tbaa !43
  %34 = getelementptr inbounds nuw float, ptr %32, i64 %33
  %35 = getelementptr inbounds [4 x float], ptr %19, i64 0, i64 0
  call void @_blend_Lab_scale(ptr noundef %34, ptr noundef %35)
  %36 = load ptr, ptr %9, align 8, !tbaa !11
  %37 = load i64, ptr %16, align 8, !tbaa !43
  %38 = getelementptr inbounds nuw float, ptr %36, i64 %37
  %39 = getelementptr inbounds [4 x float], ptr %20, i64 0, i64 0
  call void @_blend_Lab_scale(ptr noundef %38, ptr noundef %39)
  call void @llvm.lifetime.start.p0(i64 8, ptr %21) #8
  store i64 0, ptr %21, align 8, !tbaa !43
  br label %40

40:                                               ; preds = %66, %27
  %41 = load i64, ptr %21, align 8, !tbaa !43
  %42 = icmp ult i64 %41, 4
  br i1 %42, label %44, label %43

43:                                               ; preds = %40
  store i32 5, ptr %17, align 4
  call void @llvm.lifetime.end.p0(i64 8, ptr %21) #8
  br label %69

44:                                               ; preds = %40
  %45 = load i64, ptr %21, align 8, !tbaa !43
  %46 = getelementptr inbounds nuw [4 x float], ptr %19, i64 0, i64 %45
  %47 = load float, ptr %46, align 4, !tbaa !45
  %48 = load i64, ptr %21, align 8, !tbaa !43
  %49 = getelementptr inbounds nuw [4 x float], ptr %20, i64 0, i64 %48
  %50 = load float, ptr %49, align 4, !tbaa !45
  %51 = fsub reassoc nsz arcp contract afn float %47, %50
  %52 = call reassoc nsz arcp contract afn float @llvm.fabs.f32(float %51)
  %53 = load ptr, ptr %14, align 8, !tbaa !11
  %54 = load i64, ptr %21, align 8, !tbaa !43
  %55 = getelementptr inbounds nuw float, ptr %53, i64 %54
  %56 = load float, ptr %55, align 4, !tbaa !45
  %57 = load ptr, ptr %13, align 8, !tbaa !11
  %58 = load i64, ptr %21, align 8, !tbaa !43
  %59 = getelementptr inbounds nuw float, ptr %57, i64 %58
  %60 = load float, ptr %59, align 4, !tbaa !45
  %61 = fsub reassoc nsz arcp contract afn float %56, %60
  %62 = call reassoc nsz arcp contract afn float @llvm.fabs.f32(float %61)
  %63 = fdiv reassoc nsz arcp contract afn float %52, %62
  %64 = load i64, ptr %21, align 8, !tbaa !43
  %65 = getelementptr inbounds nuw [4 x float], ptr %20, i64 0, i64 %64
  store float %63, ptr %65, align 4, !tbaa !45
  br label %66

66:                                               ; preds = %44
  %67 = load i64, ptr %21, align 8, !tbaa !43
  %68 = add i64 %67, 1
  store i64 %68, ptr %21, align 8, !tbaa !43
  br label %40

69:                                               ; preds = %43
  %70 = getelementptr inbounds [4 x float], ptr %20, i64 0, i64 0
  %71 = load float, ptr %70, align 16, !tbaa !45
  %72 = getelementptr inbounds [4 x float], ptr %20, i64 0, i64 1
  %73 = load float, ptr %72, align 4, !tbaa !45
  %74 = getelementptr inbounds [4 x float], ptr %20, i64 0, i64 2
  %75 = load float, ptr %74, align 8, !tbaa !45
  %76 = call reassoc nsz arcp contract afn float @llvm.maxnum.f32(float %73, float %75)
  %77 = call reassoc nsz arcp contract afn float @llvm.maxnum.f32(float %71, float %76)
  %78 = getelementptr inbounds [4 x float], ptr %20, i64 0, i64 0
  store float %77, ptr %78, align 16, !tbaa !45
  %79 = getelementptr inbounds [4 x float], ptr %19, i64 0, i64 0
  %80 = load float, ptr %79, align 16, !tbaa !45
  %81 = load float, ptr %18, align 4, !tbaa !45
  %82 = fsub reassoc nsz arcp contract afn float 1.000000e+00, %81
  %83 = fmul reassoc nsz arcp contract afn float %80, %82
  %84 = getelementptr inbounds [4 x float], ptr %20, i64 0, i64 0
  %85 = load float, ptr %84, align 16, !tbaa !45
  %86 = load float, ptr %18, align 4, !tbaa !45
  %87 = fmul reassoc nsz arcp contract afn float %85, %86
  %88 = fadd reassoc nsz arcp contract afn float %83, %87
  %89 = load ptr, ptr %13, align 8, !tbaa !11
  %90 = getelementptr inbounds float, ptr %89, i64 0
  %91 = load float, ptr %90, align 4, !tbaa !45
  %92 = load ptr, ptr %14, align 8, !tbaa !11
  %93 = getelementptr inbounds float, ptr %92, i64 0
  %94 = load float, ptr %93, align 4, !tbaa !45
  %95 = call reassoc nsz arcp contract afn float @_CLAMP(float noundef %88, float noundef %91, float noundef %94)
  %96 = getelementptr inbounds [4 x float], ptr %20, i64 0, i64 0
  store float %95, ptr %96, align 16, !tbaa !45
  %97 = getelementptr inbounds [4 x float], ptr %20, i64 0, i64 1
  store float 0.000000e+00, ptr %97, align 4, !tbaa !45
  %98 = getelementptr inbounds [4 x float], ptr %20, i64 0, i64 2
  store float 0.000000e+00, ptr %98, align 8, !tbaa !45
  %99 = getelementptr inbounds [4 x float], ptr %20, i64 0, i64 0
  %100 = load ptr, ptr %10, align 8, !tbaa !11
  %101 = load i64, ptr %16, align 8, !tbaa !43
  %102 = getelementptr inbounds nuw float, ptr %100, i64 %101
  call void @_blend_Lab_rescale(ptr noundef %99, ptr noundef %102)
  %103 = load float, ptr %18, align 4, !tbaa !45
  %104 = load ptr, ptr %10, align 8, !tbaa !11
  %105 = load i64, ptr %16, align 8, !tbaa !43
  %106 = add i64 %105, 3
  %107 = getelementptr inbounds nuw float, ptr %104, i64 %106
  store float %103, ptr %107, align 4, !tbaa !45
  call void @llvm.lifetime.end.p0(i64 16, ptr %20) #8
  call void @llvm.lifetime.end.p0(i64 16, ptr %19) #8
  call void @llvm.lifetime.end.p0(i64 4, ptr %18) #8
  br label %108

108:                                              ; preds = %69
  %109 = load i64, ptr %15, align 8, !tbaa !43
  %110 = add i64 %109, 1
  store i64 %110, ptr %15, align 8, !tbaa !43
  %111 = load i64, ptr %16, align 8, !tbaa !43
  %112 = add i64 %111, 4
  store i64 %112, ptr %16, align 8, !tbaa !43
  br label %22

113:                                              ; preds = %26
  ret void
}