; Function Attrs: nofree norecurse nosync nounwind memory(argmem: readwrite) uwtable
define internal void @_blend_difference2(ptr noundef readonly captures(none) %0, ptr noundef readonly captures(none) %1, ptr noundef writeonly captures(none) %2, ptr noalias noundef readonly captures(none) %3, i64 noundef %4, ptr noundef readonly captures(none) %5, ptr noundef readonly captures(none) %6) unnamed_addr #11 {
  %8 = alloca [4 x float], align 16
  %9 = alloca [4 x float], align 16
  %.not = icmp eq i64 %4, 0
  br i1 %.not, label %._crit_edge, label %.lr.ph

.lr.ph:                                           ; preds = %7
  %10 = getelementptr inbounds nuw i8, ptr %9, i64 4
  %11 = getelementptr inbounds nuw i8, ptr %9, i64 8
  br label %12

._crit_edge:                                      ; preds = %_blend_Lab_rescale.exit, %7
  ret void

12:                                               ; preds = %.lr.ph, %_blend_Lab_rescale.exit
  %.02736 = phi i64 [ 0, %.lr.ph ], [ %58, %_blend_Lab_rescale.exit ]
  %.02835 = phi i64 [ 0, %.lr.ph ], [ %59, %_blend_Lab_rescale.exit ]
  %13 = getelementptr inbounds nuw float, ptr %3, i64 %.02736
  %14 = load float, ptr %13, align 4, !tbaa !36
  call void @llvm.lifetime.start.p0(i64 16, ptr nonnull %8) #8
  call void @llvm.lifetime.start.p0(i64 16, ptr nonnull %9) #8
  %15 = getelementptr inbounds nuw float, ptr %0, i64 %.02835
  br label %16

16:                                               ; preds = %16, %12
  %.06.i = phi i64 [ 0, %12 ], [ %23, %16 ]
  %17 = getelementptr inbounds nuw float, ptr %15, i64 %.06.i
  %18 = load float, ptr %17, align 4, !tbaa !36
  %19 = getelementptr inbounds nuw [4 x float], ptr @__const._blend_Lab_scale.scale, i64 0, i64 %.06.i
  %20 = load float, ptr %19, align 4, !tbaa !36
  %21 = fmul reassoc nsz arcp contract afn float %20, %18
  %22 = getelementptr inbounds nuw float, ptr %8, i64 %.06.i
  store float %21, ptr %22, align 4, !tbaa !36
  %23 = add nuw nsw i64 %.06.i, 1
  %exitcond.not.i = icmp eq i64 %23, 4
  br i1 %exitcond.not.i, label %_blend_Lab_scale.exit, label %16

_blend_Lab_scale.exit:                            ; preds = %16
  %24 = getelementptr inbounds nuw float, ptr %1, i64 %.02835
  br label %25

25:                                               ; preds = %25, %_blend_Lab_scale.exit
  %.06.i29 = phi i64 [ 0, %_blend_Lab_scale.exit ], [ %32, %25 ]
  %26 = getelementptr inbounds nuw float, ptr %24, i64 %.06.i29
  %27 = load float, ptr %26, align 4, !tbaa !36
  %28 = getelementptr inbounds nuw [4 x float], ptr @__const._blend_Lab_scale.scale, i64 0, i64 %.06.i29
  %29 = load float, ptr %28, align 4, !tbaa !36
  %30 = fmul reassoc nsz arcp contract afn float %29, %27
  %31 = getelementptr inbounds nuw float, ptr %9, i64 %.06.i29
  store float %30, ptr %31, align 4, !tbaa !36
  %32 = add nuw nsw i64 %.06.i29, 1
  %exitcond.not.i30 = icmp eq i64 %32, 4
  br i1 %exitcond.not.i30, label %_blend_Lab_scale.exit31, label %25

33:                                               ; preds = %_blend_Lab_scale.exit31
  %34 = load float, ptr %9, align 16, !tbaa !36
  %35 = load float, ptr %10, align 4, !tbaa !36
  %36 = load float, ptr %11, align 8, !tbaa !36
  %37 = tail call reassoc nsz arcp contract afn float @llvm.maxnum.f32(float %35, float %36)
  %38 = tail call reassoc nsz arcp contract afn float @llvm.maxnum.f32(float %34, float %37)
  %39 = load float, ptr %8, align 16, !tbaa !36
  %40 = fsub reassoc nsz arcp contract afn float %38, %39
  %41 = fmul reassoc nsz arcp contract afn float %40, %14
  %42 = fadd reassoc nsz arcp contract afn float %41, %39
  %43 = load float, ptr %5, align 4, !tbaa !36
  %44 = load float, ptr %6, align 4, !tbaa !36
  %45 = tail call reassoc nsz arcp contract afn float @llvm.maxnum.f32(float %42, float %43)
  %46 = tail call reassoc nsz arcp contract afn noundef float @llvm.minnum.f32(float %45, float %44)
  store float %46, ptr %9, align 16, !tbaa !36
  store float 0.000000e+00, ptr %10, align 4, !tbaa !36
  store float 0.000000e+00, ptr %11, align 8, !tbaa !36
  %47 = getelementptr inbounds nuw float, ptr %2, i64 %.02835
  br label %48

48:                                               ; preds = %48, %33
  %.06.i32 = phi i64 [ 0, %33 ], [ %55, %48 ]
  %49 = getelementptr inbounds nuw float, ptr %9, i64 %.06.i32
  %50 = load float, ptr %49, align 4, !tbaa !36
  %51 = getelementptr inbounds nuw [4 x float], ptr @__const._blend_Lab_rescale.scale, i64 0, i64 %.06.i32
  %52 = load float, ptr %51, align 4, !tbaa !36
  %53 = fmul reassoc nsz arcp contract afn float %52, %50
  %54 = getelementptr inbounds nuw float, ptr %47, i64 %.06.i32
  store float %53, ptr %54, align 4, !tbaa !36
  %55 = add nuw nsw i64 %.06.i32, 1
  %exitcond.not.i33 = icmp eq i64 %55, 4
  br i1 %exitcond.not.i33, label %_blend_Lab_rescale.exit, label %48

_blend_Lab_rescale.exit:                          ; preds = %48
  %56 = or disjoint i64 %.02835, 3
  %57 = getelementptr inbounds nuw float, ptr %2, i64 %56
  store float %14, ptr %57, align 4, !tbaa !36
  call void @llvm.lifetime.end.p0(i64 16, ptr nonnull %9) #8
  call void @llvm.lifetime.end.p0(i64 16, ptr nonnull %8) #8
  %58 = add nuw i64 %.02736, 1
  %59 = add i64 %.02835, 4
  %exitcond37.not = icmp eq i64 %58, %4
  br i1 %exitcond37.not, label %._crit_edge, label %12

_blend_Lab_scale.exit31:                          ; preds = %25, %_blend_Lab_scale.exit31
  %.034 = phi i64 [ %72, %_blend_Lab_scale.exit31 ], [ 0, %25 ]
  %60 = getelementptr inbounds nuw [4 x float], ptr %8, i64 0, i64 %.034
  %61 = load float, ptr %60, align 4, !tbaa !36
  %62 = getelementptr inbounds nuw [4 x float], ptr %9, i64 0, i64 %.034
  %63 = load float, ptr %62, align 4, !tbaa !36
  %64 = fsub reassoc nsz arcp contract afn float %61, %63
  %65 = getelementptr inbounds nuw float, ptr %6, i64 %.034
  %66 = load float, ptr %65, align 4, !tbaa !36
  %67 = getelementptr inbounds nuw float, ptr %5, i64 %.034
  %68 = load float, ptr %67, align 4, !tbaa !36
  %69 = fsub reassoc nsz arcp contract afn float %66, %68
  %70 = fdiv reassoc nsz arcp contract afn float %64, %69
  %71 = tail call reassoc nsz arcp contract afn float @llvm.fabs.f32(float %70)
  store float %71, ptr %62, align 4, !tbaa !36
  %72 = add nuw nsw i64 %.034, 1
  %exitcond.not = icmp eq i64 %72, 4
  br i1 %exitcond.not, label %33, label %_blend_Lab_scale.exit31
}